; ModuleID = 'source-C-CXX/6/8.c'
source_filename = "source-C-CXX/6/8.c"
target datalayout = "e-m:e-p270:32:32-p271:32:32-p272:64:64-i64:64-f80:128-n8:16:32:64-S128"
target triple = "x86_64-pc-linux-gnu"

@.str = private unnamed_addr constant [3 x i8] c"%s\00", align 1

; Function Attrs: nofree nounwind sspstrong uwtable
define dso_local void @main() local_unnamed_addr #0 {
  %1 = alloca [256 x i8], align 16
  %2 = alloca [256 x i8], align 16
  %3 = alloca [256 x i8], align 16
  %4 = getelementptr inbounds [256 x i8], [256 x i8]* %3, i64 0, i64 0
  %5 = getelementptr inbounds [256 x i8], [256 x i8]* %1, i64 0, i64 0
  call void @llvm.lifetime.start.p0i8(i64 256, i8* nonnull %5) #6
  %6 = getelementptr inbounds [256 x i8], [256 x i8]* %2, i64 0, i64 0
  call void @llvm.lifetime.start.p0i8(i64 256, i8* nonnull %6) #6
  %7 = getelementptr inbounds [256 x i8], [256 x i8]* %3, i64 0, i64 0
  call void @llvm.lifetime.start.p0i8(i64 256, i8* nonnull %7) #6
  %8 = call i32 (i8*, ...) @__isoc99_scanf(i8* getelementptr inbounds ([3 x i8], [3 x i8]* @.str, i64 0, i64 0), i8* nonnull %6)
  %9 = call i32 (i8*, ...) @__isoc99_scanf(i8* getelementptr inbounds ([3 x i8], [3 x i8]* @.str, i64 0, i64 0), i8* nonnull %5)
  %10 = call i32 (i8*, ...) @__isoc99_scanf(i8* getelementptr inbounds ([3 x i8], [3 x i8]* @.str, i64 0, i64 0), i8* nonnull %7)
  %11 = call i64 @strlen(i8* noundef nonnull %5) #7
  %12 = trunc i64 %11 to i32
  %13 = call i64 @strlen(i8* noundef nonnull %6) #7
  %14 = trunc i64 %13 to i32
  %15 = load i8, i8* %5, align 16
  %16 = icmp sgt i32 %14, 0
  br i1 %16, label %17, label %57

17:                                               ; preds = %0
  %18 = shl i64 %11, 32
  %19 = ashr exact i64 %18, 32
  %20 = and i64 %13, 4294967295
  br label %21

21:                                               ; preds = %17, %54
  %22 = phi i64 [ 0, %17 ], [ %55, %54 ]
  %23 = getelementptr [256 x i8], [256 x i8]* %2, i64 0, i64 %22
  %24 = load i8, i8* %23, align 1, !tbaa !5
  %25 = icmp eq i8 %15, %24
  br i1 %25, label %26, label %54

26:                                               ; preds = %21, %26
  %27 = phi i64 [ %36, %26 ], [ 0, %21 ]
  %28 = add nuw nsw i64 %27, %22
  %29 = getelementptr inbounds [256 x i8], [256 x i8]* %2, i64 0, i64 %28
  %30 = load i8, i8* %29, align 1, !tbaa !5
  %31 = getelementptr inbounds [256 x i8], [256 x i8]* %1, i64 0, i64 %27
  %32 = load i8, i8* %31, align 1, !tbaa !5
  %33 = icmp eq i8 %30, %32
  %34 = icmp slt i64 %27, %19
  %35 = select i1 %33, i1 %34, i1 false
  %36 = add nuw nsw i64 %27, 1
  br i1 %35, label %26, label %37, !llvm.loop !8

37:                                               ; preds = %26
  %38 = trunc i64 %27 to i32
  %39 = icmp ne i32 %38, %12
  %40 = icmp eq i64 %22, 0
  %41 = select i1 %39, i1 true, i1 %40
  br i1 %41, label %54, label %42

42:                                               ; preds = %37
  %43 = trunc i64 %22 to i32
  %44 = icmp sgt i32 %12, 0
  br i1 %44, label %45, label %57

45:                                               ; preds = %42
  %46 = getelementptr [256 x i8], [256 x i8]* %2, i64 0, i64 %22
  %47 = add i32 %12, %43
  %48 = add nuw nsw i32 %43, 1
  %49 = call i32 @llvm.smax.i32(i32 %47, i32 %48)
  %50 = xor i32 %43, -1
  %51 = add i32 %49, %50
  %52 = zext i32 %51 to i64
  %53 = add nuw nsw i64 %52, 1
  call void @llvm.memcpy.p0i8.p0i8.i64(i8* noundef nonnull align 1 %46, i8* noundef nonnull align 16 %4, i64 %53, i1 false)
  br label %57

54:                                               ; preds = %37, %21
  %55 = add nuw nsw i64 %22, 1
  %56 = icmp eq i64 %55, %20
  br i1 %56, label %57, label %21, !llvm.loop !10

57:                                               ; preds = %54, %45, %0, %42
  %58 = call i32 (i8*, ...) @printf(i8* nonnull dereferenceable(1) getelementptr inbounds ([3 x i8], [3 x i8]* @.str, i64 0, i64 0), i8* nonnull %6)
  call void @llvm.lifetime.end.p0i8(i64 256, i8* nonnull %7) #6
  call void @llvm.lifetime.end.p0i8(i64 256, i8* nonnull %6) #6
  call void @llvm.lifetime.end.p0i8(i64 256, i8* nonnull %5) #6
  ret void
}

; Function Attrs: argmemonly mustprogress nofree nosync nounwind willreturn
declare void @llvm.lifetime.start.p0i8(i64 immarg, i8* nocapture) #1

; Function Attrs: nofree nounwind
declare noundef i32 @__isoc99_scanf(i8* nocapture noundef readonly, ...) local_unnamed_addr #2

; Function Attrs: argmemonly mustprogress nofree nounwind readonly willreturn
declare i64 @strlen(i8* nocapture) local_unnamed_addr #3

; Function Attrs: nofree nounwind
declare noundef i32 @printf(i8* nocapture noundef readonly, ...) local_unnamed_addr #2

; Function Attrs: argmemonly mustprogress nofree nosync nounwind willreturn
declare void @llvm.lifetime.end.p0i8(i64 immarg, i8* nocapture) #1

; Function Attrs: nofree nosync nounwind readnone speculatable willreturn
declare i32 @llvm.smax.i32(i32, i32) #4

; Function Attrs: argmemonly nofree nounwind willreturn
declare void @llvm.memcpy.p0i8.p0i8.i64(i8* noalias nocapture writeonly, i8* noalias nocapture readonly, i64, i1 immarg) #5


!llvm.module.flags = !{!0, !1, !2, !3}
!llvm.ident = !{!4}

!0 = !{i32 1, !"wchar_size", i32 4}
!1 = !{i32 7, !"PIC Level", i32 2}
!2 = !{i32 7, !"PIE Level", i32 2}
!3 = !{i32 7, !"uwtable", i32 1}
!4 = !{!"clang version 13.0.0"}
!5 = !{!6, !6, i64 0}
!6 = !{!"omnipotent char", !7, i64 0}
!7 = !{!"Simple C/C++ TBAA"}
!8 = distinct !{!8, !9}
!9 = !{!"llvm.loop.mustprogress"}
!10 = distinct !{!10, !9}
